; Function Attrs: mustprogress norecurse uwtable
define hidden noundef range(i32 0, 2) i32 @main(i32 noundef %0, ptr nocapture noundef readonly %1, ptr nocapture noundef readnone %2) local_unnamed_addr #3 personality ptr @__gxx_personality_v0 {
  invoke void @_Z9test_mainiPPcS0_(i32 poison, ptr noundef %1, ptr poison)
          to label %37 unwind label %4

4:                                                ; preds = %3
  %5 = landingpad { ptr, i32 }
          catch ptr @_ZTIN5boost6nowide4test10test_errorE
          catch ptr @_ZTISt9exception
  %6 = extractvalue { ptr, i32 } %5, 0
  %7 = extractvalue { ptr, i32 } %5, 1
  %8 = tail call i32 @llvm.eh.typeid.for.p0(ptr nonnull @_ZTIN5boost6nowide4test10test_errorE) #27
  %9 = icmp eq i32 %7, %8
  br i1 %9, label %10, label %20

10:                                               ; preds = %4
  %11 = tail call ptr @__cxa_begin_catch(ptr %6) #27
  %12 = invoke noundef nonnull align 8 dereferenceable(8) ptr @_ZSt16__ostream_insertIcSt11char_traitsIcEERSt13basic_ostreamIT_T0_ES6_PKS3_l(ptr noundef nonnull align 8 dereferenceable(8) @_ZSt4cerr, ptr noundef nonnull @.str.1, i64 noundef 23)
          to label %_ZStlsISt11char_traitsIcEERSt13basic_ostreamIcT_ES5_PKc.exit unwind label %35

_ZStlsISt11char_traitsIcEERSt13basic_ostreamIcT_ES5_PKc.exit: ; preds = %10
  %13 = load ptr, ptr %11, align 8, !tbaa !4
  %14 = getelementptr inbounds i8, ptr %13, i64 16
  %15 = load ptr, ptr %14, align 8
  %16 = tail call noundef ptr %15(ptr noundef nonnull align 8 dereferenceable(16) %11) #27
  %17 = invoke noundef nonnull align 8 dereferenceable(8) ptr @_ZStlsISt11char_traitsIcEERSt13basic_ostreamIcT_ES5_PKc(ptr noundef nonnull align 8 dereferenceable(8) @_ZSt4cerr, ptr noundef %16)
          to label %18 unwind label %35

18:                                               ; preds = %_ZStlsISt11char_traitsIcEERSt13basic_ostreamIcT_ES5_PKc.exit
  %19 = invoke noundef nonnull align 8 dereferenceable(8) ptr @_ZSt4endlIcSt11char_traitsIcEERSt13basic_ostreamIT_T0_ES6_(ptr noundef nonnull align 8 dereferenceable(8) %17)
          to label %.sink.split unwind label %35

20:                                               ; preds = %4
  %21 = tail call i32 @llvm.eh.typeid.for.p0(ptr nonnull @_ZTISt9exception) #27
  %22 = icmp eq i32 %7, %21
  br i1 %22, label %23, label %38

23:                                               ; preds = %20
  %24 = tail call ptr @__cxa_begin_catch(ptr %6) #27
  %25 = invoke noundef nonnull align 8 dereferenceable(8) ptr @_ZSt16__ostream_insertIcSt11char_traitsIcEERSt13basic_ostreamIT_T0_ES6_PKS3_l(ptr noundef nonnull align 8 dereferenceable(8) @_ZSt4cerr, ptr noundef nonnull @.str, i64 noundef 34)
          to label %_ZStlsISt11char_traitsIcEERSt13basic_ostreamIcT_ES5_PKc.exit13 unwind label %33

_ZStlsISt11char_traitsIcEERSt13basic_ostreamIcT_ES5_PKc.exit13: ; preds = %23
  %26 = load ptr, ptr %24, align 8, !tbaa !4
  %27 = getelementptr inbounds i8, ptr %26, i64 16
  %28 = load ptr, ptr %27, align 8
  %29 = tail call noundef ptr %28(ptr noundef nonnull align 8 dereferenceable(8) %24) #27
  %30 = invoke noundef nonnull align 8 dereferenceable(8) ptr @_ZStlsISt11char_traitsIcEERSt13basic_ostreamIcT_ES5_PKc(ptr noundef nonnull align 8 dereferenceable(8) @_ZSt4cerr, ptr noundef %29)
          to label %31 unwind label %33

31:                                               ; preds = %_ZStlsISt11char_traitsIcEERSt13basic_ostreamIcT_ES5_PKc.exit13
  %32 = invoke noundef nonnull align 8 dereferenceable(8) ptr @_ZSt4endlIcSt11char_traitsIcEERSt13basic_ostreamIT_T0_ES6_(ptr noundef nonnull align 8 dereferenceable(8) %30)
          to label %.sink.split unwind label %33

33:                                               ; preds = %31, %23, %_ZStlsISt11char_traitsIcEERSt13basic_ostreamIcT_ES5_PKc.exit13
  %34 = landingpad { ptr, i32 }
          cleanup
  invoke void @__cxa_end_catch()
          to label %38 unwind label %39

35:                                               ; preds = %18, %10, %_ZStlsISt11char_traitsIcEERSt13basic_ostreamIcT_ES5_PKc.exit
  %36 = landingpad { ptr, i32 }
          cleanup
  invoke void @__cxa_end_catch()
          to label %38 unwind label %39

.sink.split:                                      ; preds = %31, %18
  tail call void @__cxa_end_catch()
  br label %37

37:                                               ; preds = %.sink.split, %3
  %.0 = phi i32 [ 0, %3 ], [ 1, %.sink.split ]
  ret i32 %.0

38:                                               ; preds = %35, %33, %20
  %.merged = phi { ptr, i32 } [ %5, %20 ], [ %34, %33 ], [ %36, %35 ]
  resume { ptr, i32 } %.merged

39:                                               ; preds = %35, %33
  %40 = landingpad { ptr, i32 }
          catch ptr null
  %41 = extractvalue { ptr, i32 } %40, 0
  tail call void @__clang_call_terminate(ptr %41) #28
  unreachable
}